; Function Attrs: mustprogress ssp uwtable
define void @_ZN6open3d13visualization30ViewControlWithCustomAnimation5ScaleEd(ptr noundef nonnull align 16 dereferenceable(816) %0, double noundef %1) unnamed_addr #1 align 2 {
  %3 = getelementptr inbounds nuw i8, ptr %0, i64 728
  %4 = load i32, ptr %3, align 8, !tbaa !26
  %5 = icmp eq i32 %4, 0
  br i1 %5, label %6, label %7

6:                                                ; preds = %2
  tail call void @_ZN6open3d13visualization11ViewControl5ScaleEd(ptr noundef nonnull align 16 dereferenceable(728) %0, double noundef %1)
  br label %7

7:                                                ; preds = %6, %2
  ret void
}